target datalayout = "e-m:e-p270:32:32-p271:32:32-p272:64:64-i64:64-i128:128-f80:128-n8:16:32:64-S128"
target triple = "x86_64-pc-linux-gnu"

%struct.strbuf = type { i64, i64, ptr }
%struct.rev_info = type { ptr, %struct.object_array, ptr, %struct.object_array, %struct.rev_cmdline_info, %struct.list_objects_filter_options, %struct.ref_exclusions, ptr, ptr, ptr, %struct.pathspec, i32, i32, i32, i32, i64, i32, i32, %struct.date_mode, i32, i32, i32, i32, ptr, i32, i32, ptr, ptr, i32, ptr, ptr, %struct.ident_split, ptr, i32, ptr, ptr, ptr, i32, i32, i32, ptr, %struct.grep_opt, ptr, i32, i32, i64, i64, i64, i32, i32, ptr, ptr, ptr, %struct.diff_options, %struct.diff_options, ptr, %struct.decoration, %struct.decoration, %struct.decoration, %struct.display_notes_opt, ptr, ptr, ptr, ptr, ptr, i32, ptr, i32, i32, i32, %struct.decoration, ptr, ptr, ptr, ptr, ptr, ptr, ptr, i32, ptr, i32, ptr, %struct.oidset }
%struct.object_array = type { i32, i32, ptr }
%struct.rev_cmdline_info = type { i32, i32, ptr }
%struct.list_objects_filter_options = type { %struct.strbuf, i32, i8, ptr, i64, i64, i32, i64, i64, ptr }
%struct.ref_exclusions = type { %struct.string_list, %struct.strvec, i8 }
%struct.string_list = type { ptr, i64, i64, i8, ptr }
%struct.strvec = type { ptr, i64, i64 }
%struct.pathspec = type { i32, i8, i32, i32, ptr }
%struct.date_mode = type { i32, i32, ptr }
%struct.ident_split = type { ptr, ptr, ptr, ptr, ptr, ptr, ptr, ptr }
%struct.grep_opt = type { ptr, ptr, ptr, ptr, ptr, ptr, i32, i32, i32, i32, i32, i32, i32, i32, i32, i32, i32, i32, i32, i32, i32, i32, i32, i32, i32, i32, i32, i32, i32, i32, i32, i32, [9 x [75 x i8]], i32, i32, i32, i32, i32, i32, i32, ptr, ptr, ptr }
%struct.diff_options = type { ptr, ptr, i32, i32, ptr, i32, ptr, i64, i64, ptr, ptr, ptr, ptr, %struct.diff_flags, i32, i32, i32, i32, i32, i32, i32, i32, i32, i32, i32, i32, i32, i32, i32, i32, i32, i32, i32, i32, i32, i32, ptr, i32, ptr, i32, i32, ptr, i64, i64, i32, i32, i32, i32, ptr, i32, i32, ptr, i32, i32, ptr, ptr, i32, [3 x i8], %struct.pathspec, ptr, ptr, ptr, ptr, ptr, ptr, ptr, ptr, i32, ptr, i32, i32, ptr, ptr, i32 }
%struct.diff_flags = type { i32, i32, i32, i32, i32, i32, i32, i32, i32, i32, i32, i32, i32, i32, i32, i32, i32, i32, i32, i32, i32, i32, i32, i32, i32, i32, i32, i32, i32, i32, i32, i32, i32, i32, i32 }
%struct.display_notes_opt = type { i32, %struct.string_list }
%struct.decoration = type { ptr, i32, i32, ptr }
%struct.oidset = type { %struct.kh_oid_set }
%struct.kh_oid_set = type { i32, i32, i32, i32, ptr, ptr, ptr }
%struct.repository = type { ptr, ptr, ptr, ptr, ptr, %struct.strmap, %struct.strmap, %struct.repo_path_cache, ptr, ptr, ptr, ptr, %struct.repo_settings, ptr, ptr, ptr, ptr, ptr, ptr, i32, i32, i32, ptr, ptr, i32, i32, i8 }
%struct.strmap = type { %struct.hashmap, ptr, i8 }
%struct.hashmap = type { ptr, ptr, ptr, i32, i32, i32, i32, i8 }
%struct.repo_path_cache = type { ptr, ptr, ptr, ptr, ptr, ptr, ptr }
%struct.repo_settings = type { i32, i32, i32, i32, i32, i32, i32, i32, i32, i32, i32, i32, ptr, i32, i32, i32, i32, i32, i32, i32, i64, i64, i64 }
%struct.index_state = type { ptr, i32, i32, i32, i32, ptr, ptr, ptr, %struct.cache_time, i8, i32, %struct.hashmap, %struct.hashmap, %struct.object_id, ptr, ptr, ptr, ptr, ptr, ptr, ptr }
%struct.cache_time = type { i32, i32 }
%struct.object_id = type { [32 x i8], i32 }
%struct.object = type { i32, %struct.object_id }
%struct.tree_desc = type { ptr, ptr, %struct.name_entry, i32, i32 }
%struct.name_entry = type { %struct.object_id, ptr, i32, i32 }
%struct.unpack_trees_options = type { i32, i32, i32, i32, i32, i32, i32, i32, i32, i32, i32, i32, i32, i32, i32, i32, i32, ptr, ptr, ptr, ptr, i32, ptr, ptr, ptr, ptr, %struct.checkout_metadata, %struct.unpack_trees_options_internal }
%struct.checkout_metadata = type { ptr, %struct.object_id, %struct.object_id }
%struct.unpack_trees_options_internal = type { i32, i32, i32, i32, i32, [12 x ptr], %struct.strvec, [12 x %struct.string_list], %struct.index_state, ptr, ptr }
%struct.tree = type { %struct.object, ptr, i64 }

@.str.16 = private unnamed_addr constant [19 x i8] c"bad tree object %s\00", align 1

; Function Attrs: inlinehint nounwind uwtable
define internal i32 @const_error() #3 {
  ret i32 -1
}

; Function Attrs: nounwind uwtable
define internal i32 @diff_cache(ptr noundef %0, ptr noundef %1, ptr noundef %2, i32 noundef %3) #0 {
  %5 = alloca i32, align 4
  %6 = alloca ptr, align 8
  %7 = alloca ptr, align 8
  %8 = alloca ptr, align 8
  %9 = alloca i32, align 4
  %10 = alloca ptr, align 8
  %11 = alloca %struct.tree_desc, align 8
  %12 = alloca %struct.unpack_trees_options, align 8
  %13 = alloca i32, align 4
  store ptr %0, ptr %6, align 8, !tbaa !4
  store ptr %1, ptr %7, align 8, !tbaa !120
  store ptr %2, ptr %8, align 8, !tbaa !124
  store i32 %3, ptr %9, align 4, !tbaa !9
  call void @llvm.lifetime.start.p0(i64 8, ptr %10) #11
  call void @llvm.lifetime.start.p0(i64 80, ptr %11) #11
  call void @llvm.lifetime.start.p0(i64 1120, ptr %12) #11
  %14 = load ptr, ptr %7, align 8, !tbaa !120
  %15 = call ptr @parse_tree_indirect(ptr noundef %14)
  store ptr %15, ptr %10, align 8, !tbaa !162
  %16 = load ptr, ptr %10, align 8, !tbaa !162
  %17 = icmp ne ptr %16, null
  br i1 %17, label %30, label %18

18:                                               ; preds = %4
  %19 = load ptr, ptr %8, align 8, !tbaa !124
  %20 = icmp ne ptr %19, null
  br i1 %20, label %21, label %23

21:                                               ; preds = %18
  %22 = load ptr, ptr %8, align 8, !tbaa !124
  br label %26

23:                                               ; preds = %18
  %24 = load ptr, ptr %7, align 8, !tbaa !120
  %25 = call ptr @oid_to_hex(ptr noundef %24)
  br label %26

26:                                               ; preds = %23, %21
  %27 = phi ptr [ %22, %21 ], [ %25, %23 ]
  %28 = call i32 (ptr, ...) @error(ptr noundef @.str.16, ptr noundef %27)
  %29 = call i32 @const_error()
  store i32 %29, ptr %5, align 4
  store i32 1, ptr %13, align 4
  br label %80

30:                                               ; preds = %4
  call void @llvm.memset.p0.i64(ptr align 8 %12, i8 0, i64 1120, i1 false)
  %31 = getelementptr inbounds nuw %struct.unpack_trees_options, ptr %12, i32 0, i32 21
  store i32 1, ptr %31, align 8, !tbaa !164
  %32 = load i32, ptr %9, align 4, !tbaa !9
  %33 = getelementptr inbounds nuw %struct.unpack_trees_options, ptr %12, i32 0, i32 4
  store i32 %32, ptr %33, align 8, !tbaa !169
  %34 = load i32, ptr %9, align 4, !tbaa !9
  %35 = icmp ne i32 %34, 0
  br i1 %35, label %36, label %44

36:                                               ; preds = %30
  %37 = load ptr, ptr %6, align 8, !tbaa !4
  %38 = getelementptr inbounds nuw %struct.rev_info, ptr %37, i32 0, i32 53
  %39 = getelementptr inbounds nuw %struct.diff_options, ptr %38, i32 0, i32 13
  %40 = getelementptr inbounds nuw %struct.diff_flags, ptr %39, i32 0, i32 6
  %41 = load i32, ptr %40, align 8, !tbaa !119
  %42 = icmp ne i32 %41, 0
  %43 = xor i1 %42, true
  br label %44

44:                                               ; preds = %36, %30
  %45 = phi i1 [ false, %30 ], [ %43, %36 ]
  %46 = zext i1 %45 to i32
  %47 = getelementptr inbounds nuw %struct.unpack_trees_options, ptr %12, i32 0, i32 10
  store i32 %46, ptr %47, align 8, !tbaa !170
  %48 = getelementptr inbounds nuw %struct.unpack_trees_options, ptr %12, i32 0, i32 0
  store i32 1, ptr %48, align 8, !tbaa !171
  %49 = getelementptr inbounds nuw %struct.unpack_trees_options, ptr %12, i32 0, i32 20
  store ptr @oneway_diff, ptr %49, align 8, !tbaa !172
  %50 = load ptr, ptr %6, align 8, !tbaa !4
  %51 = getelementptr inbounds nuw %struct.unpack_trees_options, ptr %12, i32 0, i32 23
  store ptr %50, ptr %51, align 8, !tbaa !173
  %52 = load ptr, ptr %6, align 8, !tbaa !4
  %53 = getelementptr inbounds nuw %struct.rev_info, ptr %52, i32 0, i32 53
  %54 = getelementptr inbounds nuw %struct.diff_options, ptr %53, i32 0, i32 71
  %55 = load ptr, ptr %54, align 8, !tbaa !62
  %56 = getelementptr inbounds nuw %struct.repository, ptr %55, i32 0, i32 15
  %57 = load ptr, ptr %56, align 8, !tbaa !63
  %58 = getelementptr inbounds nuw %struct.unpack_trees_options, ptr %12, i32 0, i32 25
  store ptr %57, ptr %58, align 8, !tbaa !174
  %59 = getelementptr inbounds nuw %struct.unpack_trees_options, ptr %12, i32 0, i32 24
  store ptr null, ptr %59, align 8, !tbaa !175
  %60 = load ptr, ptr %6, align 8, !tbaa !4
  %61 = getelementptr inbounds nuw %struct.rev_info, ptr %60, i32 0, i32 53
  %62 = getelementptr inbounds nuw %struct.diff_options, ptr %61, i32 0, i32 58
  %63 = getelementptr inbounds nuw %struct.unpack_trees_options, ptr %12, i32 0, i32 19
  store ptr %62, ptr %63, align 8, !tbaa !176
  %64 = getelementptr inbounds nuw %struct.unpack_trees_options, ptr %12, i32 0, i32 19
  %65 = load ptr, ptr %64, align 8, !tbaa !176
  %66 = getelementptr inbounds nuw %struct.pathspec, ptr %65, i32 0, i32 1
  %67 = load i8, ptr %66, align 4
  %68 = and i8 %67, -3
  %69 = or i8 %68, 2
  store i8 %69, ptr %66, align 4
  %70 = load ptr, ptr %10, align 8, !tbaa !162
  %71 = getelementptr inbounds nuw %struct.tree, ptr %70, i32 0, i32 0
  %72 = getelementptr inbounds nuw %struct.object, ptr %71, i32 0, i32 1
  %73 = load ptr, ptr %10, align 8, !tbaa !162
  %74 = getelementptr inbounds nuw %struct.tree, ptr %73, i32 0, i32 1
  %75 = load ptr, ptr %74, align 8, !tbaa !177
  %76 = load ptr, ptr %10, align 8, !tbaa !162
  %77 = getelementptr inbounds nuw %struct.tree, ptr %76, i32 0, i32 2
  %78 = load i64, ptr %77, align 8, !tbaa !180
  call void @init_tree_desc(ptr noundef %11, ptr noundef %72, ptr noundef %75, i64 noundef %78)
  %79 = call i32 @unpack_trees(i32 noundef 1, ptr noundef %11, ptr noundef %12)
  store i32 %79, ptr %5, align 4
  store i32 1, ptr %13, align 4
  br label %80

80:                                               ; preds = %44, %26
  call void @llvm.lifetime.end.p0(i64 1120, ptr %12) #11
  call void @llvm.lifetime.end.p0(i64 80, ptr %11) #11
  call void @llvm.lifetime.end.p0(i64 8, ptr %10) #11
  %81 = load i32, ptr %5, align 4
  ret i32 %81
}