; Function Attrs: nounwind uwtable
define internal fastcc i32 @diff_cache(ptr noundef %0, ptr noundef %1, ptr noundef %2, i32 noundef range(i32 0, 2) %3) unnamed_addr #0 {
  %5 = alloca %struct.tree_desc, align 8
  %6 = alloca %struct.unpack_trees_options, align 8
  call void @llvm.lifetime.start.p0(i64 80, ptr nonnull %5) #15
  call void @llvm.lifetime.start.p0(i64 1120, ptr nonnull %6) #15
  %7 = tail call ptr @parse_tree_indirect(ptr noundef %1) #15
  %.not = icmp eq ptr %7, null
  br i1 %.not, label %8, label %14

8:                                                ; preds = %4
  %.not16 = icmp eq ptr %2, null
  br i1 %.not16, label %9, label %11

9:                                                ; preds = %8
  %10 = tail call ptr @oid_to_hex(ptr noundef %1) #15
  br label %11

11:                                               ; preds = %8, %9
  %12 = phi ptr [ %10, %9 ], [ %2, %8 ]
  %13 = tail call i32 (ptr, ...) @error(ptr noundef nonnull @.str.16, ptr noundef %12) #15
  br label %42

14:                                               ; preds = %4
  call void @llvm.memset.p0.i64(ptr noundef nonnull align 8 dereferenceable(1120) %6, i8 0, i64 1120, i1 false)
  %15 = getelementptr inbounds nuw i8, ptr %6, i64 104
  store i32 1, ptr %15, align 8, !tbaa !140
  %16 = getelementptr inbounds nuw i8, ptr %6, i64 16
  store i32 %3, ptr %16, align 8, !tbaa !146
  %.not17 = icmp eq i32 %3, 0
  br i1 %.not17, label %21, label %17

17:                                               ; preds = %14
  %18 = getelementptr inbounds nuw i8, ptr %0, i64 1592
  %19 = load i32, ptr %18, align 8, !tbaa !121
  %.not18 = icmp eq i32 %19, 0
  %20 = zext i1 %.not18 to i32
  br label %21

21:                                               ; preds = %17, %14
  %22 = phi i32 [ 0, %14 ], [ %20, %17 ]
  %23 = getelementptr inbounds nuw i8, ptr %6, i64 40
  store i32 %22, ptr %23, align 8, !tbaa !147
  store i32 1, ptr %6, align 8, !tbaa !148
  %24 = getelementptr inbounds nuw i8, ptr %6, i64 96
  store ptr @oneway_diff, ptr %24, align 8, !tbaa !149
  %25 = getelementptr inbounds nuw i8, ptr %6, i64 120
  store ptr %0, ptr %25, align 8, !tbaa !150
  %26 = getelementptr inbounds nuw i8, ptr %0, i64 2040
  %27 = load ptr, ptr %26, align 8, !tbaa !58
  %28 = getelementptr inbounds nuw i8, ptr %27, i64 384
  %29 = load ptr, ptr %28, align 8, !tbaa !59
  %30 = getelementptr inbounds nuw i8, ptr %6, i64 136
  store ptr %29, ptr %30, align 8, !tbaa !151
  %31 = getelementptr inbounds nuw i8, ptr %0, i64 1928
  %32 = getelementptr inbounds nuw i8, ptr %6, i64 88
  store ptr %31, ptr %32, align 8, !tbaa !152
  %33 = getelementptr inbounds nuw i8, ptr %0, i64 1932
  %34 = load i8, ptr %33, align 4
  %35 = or i8 %34, 2
  store i8 %35, ptr %33, align 4
  %36 = getelementptr inbounds nuw i8, ptr %7, i64 4
  %37 = getelementptr inbounds nuw i8, ptr %7, i64 40
  %38 = load ptr, ptr %37, align 8, !tbaa !153
  %39 = getelementptr inbounds nuw i8, ptr %7, i64 48
  %40 = load i64, ptr %39, align 8, !tbaa !156
  call void @init_tree_desc(ptr noundef nonnull %5, ptr noundef nonnull %36, ptr noundef %38, i64 noundef %40) #15
  %41 = call i32 @unpack_trees(i32 noundef 1, ptr noundef nonnull %5, ptr noundef nonnull %6) #15
  br label %42

42:                                               ; preds = %21, %11
  %.0 = phi i32 [ %41, %21 ], [ -1, %11 ]
  call void @llvm.lifetime.end.p0(i64 1120, ptr nonnull %6) #15
  call void @llvm.lifetime.end.p0(i64 80, ptr nonnull %5) #15
  ret i32 %.0
}